	.file	"tmpxft_00004454_00000000-6_no_comparison.cudafe1.cpp"
	.text
.Ltext0:
#APP
	.section __nv_relfatbin, "a"
.align 8
fatbinData:
.quad 0x00100001ba55ed50,0x00000000000002a0,0x0000004001010002,0x00000000000001c0
.quad 0x00000000000001bd,0x0000003400010007,0x0000000000000000,0x0000000000002011
.quad 0x0000000000000000,0x0000000000000478,0x010102464c457fa2,0x00016e0001000733
.quad 0x78210001007900be,0x0534000ef5000702,0x0000003800400034,0x2e00000100080040
.quad 0x6261747274736873,0x086d792700082e00,0x646e68735f0cf000,0x6e692e766e2e0078
.quad 0x756265642e006f66,0x0015656e696c5f67,0x61735f57000f5f16,0x747003f000147373
.quad 0x31342e7478745f78,0x3534373330393731,0x6c6c61632ea1001d,0x9f000e6870617267
.quad 0x7079746f746f7270,0x0600010f7a008b65,0x040003000000328c,0x2c00183e11000100
.quad 0x0018521100010005,0x186f11000100062c,0x1670000100072c00,0x01ca100002000000
.quad 0x0101000a0efb0191,0x1a36002101d70101,0x00e60f001a301e00,0x762e1cf10001080a
.quad 0x38206e6f69737265,0x677261742e00312e,0x32355f6d73207465,0x7365726464612e00
.quad 0x3620657a69735f73,0xffffffff40003034,0xfd130008fe130008,0x010f0008fc130008
.quad 0x010e010001112900,0x8b2e000100402200,0x0b1f000108003000,0x004000cb2f040040
.quad 0x00010e014e131113,0x0006781100295813,0x082201d600002402,0x0208001826000100
.quad 0x15d013000100012e,0x1f0b0080001a2f00,0x0015ea130400403e,0x521f0b0040003a2f
.quad 0x2f00d52413040040,0x146f120b00400034,0x5813000100702b00,0x6406000620110040
.quad 0x0000088002f20401,0x0000000000000000,0x0000006801010001,0x0000000000000038
.quad 0x0000004000000036,0x0000003400080001,0x0000000000000000,0x0000000000002011
.quad 0x0000000000000000,0x0000000000000038,0x0000001a00000048,0x666e69656e696c2d
.quad 0x706d6f632d2d206f,0x796c6e6f2d656c69,0x0000000000002020,0x762e21f000010a13
.quad 0x38206e6f69737265,0x677261742e0a312e,0x32355f6d73207465,0x7365726464612e0a
.quad 0x3620657a69735f73, 0x0000000a0a0a0a34
.text

#NO_APP
	.p2align 4
	.type	_ZL22____nv_dummy_param_refPv, @function
_ZL22____nv_dummy_param_refPv:
.LVL0:
.LFB4064:
	.file 1 "/usr/local/cuda/bin/../targets/x86_64-linux/include/crt/host_runtime.h"
	.loc 1 133 49 view -0
	.cfi_startproc
	.loc 1 133 49 is_stmt 0 view .LVU1
	endbr64
	.loc 1 133 49 is_stmt 1 view .LVU2
	.loc 1 133 49 view .LVU3
	ret
	.cfi_endproc
.LFE4064:
	.size	_ZL22____nv_dummy_param_refPv, .-_ZL22____nv_dummy_param_refPv
	.p2align 4
	.type	_ZL31__nv_cudaEntityRegisterCallbackPPv, @function
_ZL31__nv_cudaEntityRegisterCallbackPPv:
.LVL1:
.LFB4087:
	.file 2 "/tmp/tmpxft_00004454_00000000-6_no_comparison.cudafe1.stub.c"
	.loc 2 13 57 view -0
	.cfi_startproc
	.loc 2 13 57 is_stmt 0 view .LVU5
	endbr64
	.loc 2 13 58 is_stmt 1 view .LVU6
	.loc 2 13 58 view .LVU7
	.loc 2 13 58 view .LVU8
	.loc 2 13 84 view .LVU9
	.loc 2 13 85 view .LVU10
.LVL2:
	.file 3 "no_comparison.cu"
	.loc 3 1 150 view .LVU11
	.loc 2 13 129 is_stmt 0 view .LVU12
	ret
	.cfi_endproc
.LFE4087:
	.size	_ZL31__nv_cudaEntityRegisterCallbackPPv, .-_ZL31__nv_cudaEntityRegisterCallbackPPv
	.section	.text.startup,"ax",@progbits
	.p2align 4
	.globl	main
	.type	main, @function
main:
.LVL3:
.LFB4062:
	.loc 3 18 34 is_stmt 1 view -0
	.cfi_startproc
	.loc 3 18 34 is_stmt 0 view .LVU14
	endbr64
	pushq	%rax
	.cfi_def_cfa_offset 16
	popq	%rax
	.cfi_def_cfa_offset 8
.LBB60:
.LBB61:
	.file 4 "/usr/include/stdlib.h"
	.loc 4 363 19 view .LVU15
	movl	$10, %edx
.LBE61:
.LBE60:
	.loc 3 18 34 view .LVU16
	subq	$24, %rsp
	.cfi_def_cfa_offset 32
.LBB64:
.LBB62:
	.loc 4 363 19 view .LVU17
	movq	8(%rsi), %rdi
.LVL4:
	.loc 4 363 19 view .LVU18
	xorl	%esi, %esi
.LVL5:
	.loc 4 363 19 view .LVU19
.LBE62:
.LBE64:
	.loc 3 18 34 view .LVU20
	movq	%fs:40, %rax
	movq	%rax, 8(%rsp)
	xorl	%eax, %eax
	.loc 3 19 1 is_stmt 1 view .LVU21
.LBB65:
.LBI60:
	.loc 4 361 26 view .LVU22
.LBB63:
	.loc 4 363 1 view .LVU23
	.loc 4 363 19 is_stmt 0 view .LVU24
	call	strtol@PLT
.LVL6:
	.loc 4 363 19 view .LVU25
.LBE63:
.LBE65:
.LBB66:
.LBI66:
	.loc 3 10 24 is_stmt 1 view .LVU26
.LBB67:
.LBB68:
.LBI68:
	.file 5 "/usr/local/cuda/bin/../targets/x86_64-linux/include/cuda_runtime.h"
	.loc 5 739 1 view .LVU27
.LBB69:
.LBI69:
	.loc 5 499 27 view .LVU28
.LBB70:
	.loc 5 505 1 view .LVU29
	.loc 5 505 23 is_stmt 0 view .LVU30
	movq	%rsp, %rdi
	xorl	%edx, %edx
.LBE70:
.LBE69:
.LBE68:
.LBE67:
.LBE66:
	.loc 3 19 19 view .LVU31
	movslq	%eax, %rsi
.LBB79:
.LBB78:
	.loc 3 12 15 view .LVU32
	imulq	$4000000, %rsi, %rsi
.LVL7:
.LBB73:
.LBB72:
.LBB71:
	.loc 5 505 23 view .LVU33
	call	cudaHostAlloc@PLT
.LVL8:
	.loc 5 505 23 view .LVU34
.LBE71:
.LBE72:
.LBE73:
.LBB74:
.LBI74:
	.loc 3 4 24 is_stmt 1 view .LVU35
.LBB75:
	.loc 3 5 25 view .LVU36
	movq	(%rsp), %rax
.LBE75:
.LBE74:
	.loc 3 13 9 is_stmt 0 view .LVU37
	movdqa	.LC0(%rip), %xmm0
	movdqa	.LC1(%rip), %xmm2
	movdqa	.LC2(%rip), %xmm1
.LVL9:
	.p2align 4,,10
	.p2align 3
.L5:
.LBB77:
.LBB76:
	.loc 3 6 20 view .LVU38
	movdqa	%xmm0, %xmm3
	movdqa	%xmm0, %xmm4
	paddq	%xmm2, %xmm0
	addq	$16, %rax
	paddq	%xmm1, %xmm3
	shufps	$136, %xmm3, %xmm4
	.loc 3 6 1 view .LVU39
	movups	%xmm4, -16(%rax)
	.loc 3 5 1 is_stmt 1 view .LVU40
	.loc 3 5 25 view .LVU41
	jmp	.L5
.LBE76:
.LBE77:
.LBE78:
.LBE79:
	.cfi_endproc
.LFE4062:
	.size	main, .-main
	.p2align 4
	.type	_ZL24__sti____cudaRegisterAllv, @function
_ZL24__sti____cudaRegisterAllv:
.LFB4088:
	.loc 2 14 43 view -0
	.cfi_startproc
	endbr64
	.loc 2 14 44 view .LVU43
	.loc 2 14 44 view .LVU44
	leaq	_ZL22____nv_dummy_param_refPv(%rip), %rcx
	leaq	_ZL15__module_id_str(%rip), %rdx
	leaq	__fatbinwrap_345ef639_16_no_comparison_cu_main(%rip), %rsi
	leaq	_ZL31__nv_cudaEntityRegisterCallbackPPv(%rip), %rdi
	jmp	__cudaRegisterLinkedBinary_345ef639_16_no_comparison_cu_main@PLT
.LVL10:
	.cfi_endproc
.LFE4088:
	.size	_ZL24__sti____cudaRegisterAllv, .-_ZL24__sti____cudaRegisterAllv
	.section	.init_array,"aw"
	.align 8
	.quad	_ZL24__sti____cudaRegisterAllv
	.section	.text.startup
	.p2align 4
	.type	_GLOBAL__sub_I_main, @function
_GLOBAL__sub_I_main:
.LFB4625:
	.file 6 "tmpxft_00004454_00000000-6_no_comparison.cudafe1.stub.c"
	.loc 6 31 1 view -0
	.cfi_startproc
	endbr64
.LVL11:
.LBB80:
.LBI80:
	.loc 6 31 1 view .LVU46
.LBE80:
	subq	$8, %rsp
	.cfi_def_cfa_offset 16
.LBB83:
.LBB81:
	.file 7 "/usr/include/c++/9/iostream"
	.loc 7 74 23 is_stmt 0 view .LVU47
	leaq	_ZStL8__ioinit(%rip), %rdi
	call	_ZNSt8ios_base4InitC1Ev@PLT
.LVL12:
	movq	_ZNSt8ios_base4InitD1Ev@GOTPCREL(%rip), %rdi
.LBE81:
.LBE83:
	.loc 6 31 1 view .LVU48
	addq	$8, %rsp
	.cfi_def_cfa_offset 8
.LBB84:
.LBB82:
	.loc 7 74 23 view .LVU49
	leaq	__dso_handle(%rip), %rdx
	leaq	_ZStL8__ioinit(%rip), %rsi
	jmp	__cxa_atexit@PLT
.LVL13:
.LBE82:
.LBE84:
	.cfi_endproc
.LFE4625:
	.size	_GLOBAL__sub_I_main, .-_GLOBAL__sub_I_main
	.section	.init_array
	.align 8
	.quad	_GLOBAL__sub_I_main
	.weak	hostRefConstantArrayExternalLinkage
	.section	.nvHRCE,"a"
	.type	hostRefConstantArrayExternalLinkage, @object
	.size	hostRefConstantArrayExternalLinkage, 1
hostRefConstantArrayExternalLinkage:
	.zero	1
	.weak	hostRefConstantArrayInternalLinkage
	.section	.nvHRCI,"a"
	.type	hostRefConstantArrayInternalLinkage, @object
	.size	hostRefConstantArrayInternalLinkage, 1
hostRefConstantArrayInternalLinkage:
	.zero	1
	.weak	hostRefDeviceArrayExternalLinkage
	.section	.nvHRDE,"a"
	.type	hostRefDeviceArrayExternalLinkage, @object
	.size	hostRefDeviceArrayExternalLinkage, 1
hostRefDeviceArrayExternalLinkage:
	.zero	1
	.weak	hostRefDeviceArrayInternalLinkage
	.section	.nvHRDI,"a"
	.type	hostRefDeviceArrayInternalLinkage, @object
	.size	hostRefDeviceArrayInternalLinkage, 1
hostRefDeviceArrayInternalLinkage:
	.zero	1
	.weak	hostRefKernelArrayExternalLinkage
	.section	.nvHRKE,"a"
	.type	hostRefKernelArrayExternalLinkage, @object
	.size	hostRefKernelArrayExternalLinkage, 1
hostRefKernelArrayExternalLinkage:
	.zero	1
	.weak	hostRefKernelArrayInternalLinkage
	.section	.nvHRKI,"a"
	.type	hostRefKernelArrayInternalLinkage, @object
	.size	hostRefKernelArrayInternalLinkage, 1
hostRefKernelArrayInternalLinkage:
	.zero	1
	.globl	__fatbinwrap_345ef639_16_no_comparison_cu_main
	.section	.nvFatBinSegment,"aw"
	.align 8
	.type	__fatbinwrap_345ef639_16_no_comparison_cu_main, @object
	.size	__fatbinwrap_345ef639_16_no_comparison_cu_main, 24
__fatbinwrap_345ef639_16_no_comparison_cu_main:
	.long	1180844977
	.long	1
	.quad	fatbinData
	.quad	0
	.section	__nv_module_id,"a"
	.align 32
	.type	_ZL15__module_id_str, @object
	.size	_ZL15__module_id_str, 35
_ZL15__module_id_str:
	.string	"_345ef639_16_no_comparison_cu_main"
	.local	_ZStL8__ioinit
	.comm	_ZStL8__ioinit,1,1
	.section	.rodata.cst16,"aM",@progbits,16
	.align 16
.LC0:
	.quad	0
	.quad	1
	.align 16
.LC1:
	.quad	4
	.quad	4
	.align 16
.LC2:
	.quad	2
	.quad	2
	.text
.Letext0:
	.file 8 "/usr/local/cuda-12.1/targets/x86_64-linux/include/vector_types.h"
	.file 9 "/usr/lib/gcc/x86_64-linux-gnu/9/include/stddef.h"
	.file 10 "/usr/local/cuda-12.1/targets/x86_64-linux/include/driver_types.h"
	.file 11 "/usr/include/c++/9/cstdlib"
	.file 12 "/usr/include/c++/9/bits/std_abs.h"
	.file 13 "/usr/include/c++/9/bits/cpp_type_traits.h"
	.file 14 "/usr/include/c++/9/cmath"
	.file 15 "/usr/include/c++/9/type_traits"
	.file 16 "/usr/include/x86_64-linux-gnu/c++/9/bits/c++config.h"
	.file 17 "/usr/include/c++/9/bits/stl_pair.h"
	.file 18 "/usr/include/c++/9/cwchar"
	.file 19 "/usr/include/c++/9/new"
	.file 20 "/usr/include/c++/9/bits/exception_ptr.h"
	.file 21 "/usr/include/c++/9/debug/debug.h"
	.file 22 "/usr/include/c++/9/bits/char_traits.h"
	.file 23 "/usr/include/c++/9/cstdint"
	.file 24 "/usr/include/c++/9/clocale"
	.file 25 "/usr/include/c++/9/cstdio"
	.file 26 "/usr/include/c++/9/bits/basic_string.h"
	.file 27 "/usr/include/c++/9/system_error"
	.file 28 "/usr/include/c++/9/bits/ios_base.h"
	.file 29 "/usr/include/c++/9/cwctype"
	.file 30 "/usr/include/c++/9/ostream"
	.file 31 "/usr/include/c++/9/bits/locale_facets.h"
	.file 32 "/usr/include/c++/9/iosfwd"
	.file 33 "/usr/include/c++/9/bits/uniform_int_dist.h"
	.file 34 "/usr/include/c++/9/bits/random.h"
	.file 35 "/usr/include/c++/9/bits/random.tcc"
	.file 36 "/usr/include/c++/9/bits/basic_ios.h"
	.file 37 "/usr/include/c++/9/bits/predefined_ops.h"
	.file 38 "/usr/include/c++/9/ext/new_allocator.h"
	.file 39 "/usr/include/c++/9/ext/numeric_traits.h"
	.file 40 "/usr/include/x86_64-linux-gnu/bits/types.h"
	.file 41 "/usr/include/x86_64-linux-gnu/bits/stdint-intn.h"
	.file 42 "/usr/include/x86_64-linux-gnu/bits/stdlib-float.h"
	.file 43 "/usr/include/x86_64-linux-gnu/bits/stdlib-bsearch.h"
	.file 44 "/usr/include/x86_64-linux-gnu/bits/stdlib.h"
	.file 45 "/usr/include/c++/9/stdlib.h"
	.file 46 "/usr/include/x86_64-linux-gnu/bits/types/struct_tm.h"
	.file 47 "/usr/include/time.h"
	.file 48 "/usr/include/math.h"
	.file 49 "/usr/include/c++/9/math.h"
	.file 50 "/usr/include/x86_64-linux-gnu/bits/mathcalls.h"
	.file 51 "/usr/local/cuda/bin/../targets/x86_64-linux/include/crt/math_functions.h"
	.file 52 "/usr/local/cuda/bin/../targets/x86_64-linux/include/device_launch_parameters.h"
	.file 53 "<built-in>"
	.file 54 "/usr/include/x86_64-linux-gnu/bits/types/wint_t.h"
	.file 55 "/usr/include/x86_64-linux-gnu/bits/types/__mbstate_t.h"
	.file 56 "/usr/include/x86_64-linux-gnu/bits/types/mbstate_t.h"
	.file 57 "/usr/include/x86_64-linux-gnu/bits/types/__FILE.h"
	.file 58 "/usr/include/x86_64-linux-gnu/bits/types/struct_FILE.h"
	.file 59 "/usr/include/x86_64-linux-gnu/bits/types/FILE.h"
	.file 60 "/usr/include/wchar.h"
	.file 61 "/usr/include/x86_64-linux-gnu/bits/wchar2.h"
	.file 62 "/usr/include/x86_64-linux-gnu/bits/stdint-uintn.h"
	.file 63 "/usr/include/stdint.h"
	.file 64 "/usr/include/locale.h"
	.file 65 "/usr/include/x86_64-linux-gnu/c++/9/bits/atomic_word.h"
	.file 66 "/usr/include/x86_64-linux-gnu/bits/types/__fpos_t.h"
	.file 67 "/usr/include/stdio.h"
	.file 68 "/usr/include/x86_64-linux-gnu/bits/sys_errlist.h"
	.file 69 "/usr/include/x86_64-linux-gnu/bits/stdio2.h"
	.file 70 "/usr/include/x86_64-linux-gnu/bits/stdio.h"
	.file 71 "/usr/include/errno.h"
	.file 72 "/usr/include/x86_64-linux-gnu/bits/wctype-wchar.h"
	.file 73 "/usr/include/wctype.h"
	.file 74 "/usr/local/cuda/bin/../targets/x86_64-linux/include/fatbinary_section.h"
	.file 75 "/tmp/tmpxft_00004454_00000000-3_no_comparison.fatbin.c"
	.file 76 "/usr/local/cuda/bin/../targets/x86_64-linux/include/cuda_runtime_api.h"
	.section	.note.GNU-stack,"",@progbits
	.section	.note.gnu.property,"a"
	.align 8
	.long	 1f - 0f
	.long	 4f - 1f
	.long	 5
0:
	.string	 "GNU"
1:
	.align 8
	.long	 0xc0000002
	.long	 3f - 2f
2:
	.long	 0x3
3:
	.align 8
4:
